; Function Attrs: nounwind uwtable
define ptr @l_Array_mapMUnsafe_map___at_Lean_Elab_PartialFixpoint_derivePartialCorrectness___spec__2___lambda__2(ptr noundef %0, ptr noundef %1, ptr noundef %2, ptr noundef %3, ptr noundef %4, ptr noundef %5, ptr noundef %6) local_unnamed_addr #0 {
  %8 = load ptr, ptr @l_Array_mapMUnsafe_map___at_Lean_Elab_PartialFixpoint_derivePartialCorrectness___spec__2___lambda__2___closed__2, align 8, !tbaa !9
  %9 = tail call ptr @l___private_Lean_CoreM_0__Lean_Core_mkFreshNameImp(ptr noundef %8, ptr noundef %4, ptr noundef %5, ptr noundef %6) #6
  %10 = getelementptr inbounds nuw i8, ptr %9, i64 8
  %11 = load ptr, ptr %10, align 8, !tbaa !9
  %12 = ptrtoint ptr %11 to i64
  %13 = and i64 %12, 1
  %.not = icmp eq i64 %13, 0
  br i1 %.not, label %14, label %lean_inc.exit21

14:                                               ; preds = %7
  %.val.i = load i32, ptr %11, align 4, !tbaa !4
  %15 = icmp sgt i32 %.val.i, 0
  br i1 %15, label %16, label %18, !prof !14

16:                                               ; preds = %14
  %17 = add nuw i32 %.val.i, 1
  store i32 %17, ptr %11, align 4, !tbaa !4
  br label %lean_inc.exit21

18:                                               ; preds = %14
  %.not.i22 = icmp eq i32 %.val.i, 0
  br i1 %.not.i22, label %lean_inc.exit21, label %19

19:                                               ; preds = %18
  tail call void @lean_inc_ref_cold(ptr noundef nonnull %11) #6
  br label %lean_inc.exit21

lean_inc.exit21:                                  ; preds = %19, %18, %16, %7
  %20 = getelementptr inbounds nuw i8, ptr %9, i64 16
  %21 = load ptr, ptr %20, align 8, !tbaa !9
  %22 = ptrtoint ptr %21 to i64
  %23 = and i64 %22, 1
  %.not26 = icmp eq i64 %23, 0
  br i1 %.not26, label %24, label %lean_inc.exit

24:                                               ; preds = %lean_inc.exit21
  %.val.i23 = load i32, ptr %21, align 4, !tbaa !4
  %25 = icmp sgt i32 %.val.i23, 0
  br i1 %25, label %26, label %28, !prof !14

26:                                               ; preds = %24
  %27 = add nuw i32 %.val.i23, 1
  store i32 %27, ptr %21, align 4, !tbaa !4
  br label %lean_inc.exit

28:                                               ; preds = %24
  %.not.i24 = icmp eq i32 %.val.i23, 0
  br i1 %.not.i24, label %lean_inc.exit, label %29

29:                                               ; preds = %28
  tail call void @lean_inc_ref_cold(ptr noundef nonnull %21) #6
  br label %lean_inc.exit

lean_inc.exit:                                    ; preds = %29, %28, %26, %lean_inc.exit21
  %30 = ptrtoint ptr %9 to i64
  %31 = and i64 %30, 1
  %.not27 = icmp eq i64 %31, 0
  br i1 %.not27, label %32, label %lean_dec.exit

32:                                               ; preds = %lean_inc.exit
  %33 = load i32, ptr %9, align 4, !tbaa !4
  %34 = icmp sgt i32 %33, 1
  br i1 %34, label %35, label %37, !prof !14

35:                                               ; preds = %32
  %36 = add nsw i32 %33, -1
  store i32 %36, ptr %9, align 4, !tbaa !4
  br label %lean_dec.exit

37:                                               ; preds = %32
  %.not.i = icmp eq i32 %33, 0
  br i1 %.not.i, label %lean_dec.exit, label %38

38:                                               ; preds = %37
  tail call void @lean_dec_ref_cold(ptr noundef nonnull %9) #6
  br label %lean_dec.exit

lean_dec.exit:                                    ; preds = %38, %37, %35, %lean_inc.exit
  tail call void @lean_inc_heartbeat() #6
  %39 = tail call noalias ptr @mi_malloc_small(i64 noundef 32) #6
  %40 = icmp eq ptr %39, null
  br i1 %40, label %41, label %lean_alloc_closure.exit

41:                                               ; preds = %lean_dec.exit
  tail call void @lean_internal_panic_out_of_memory() #7
  unreachable

lean_alloc_closure.exit:                          ; preds = %lean_dec.exit
  %42 = getelementptr inbounds nuw i8, ptr %39, i64 4
  store i32 1, ptr %39, align 4, !tbaa !4
  store i32 -184549344, ptr %42, align 4
  %43 = getelementptr inbounds nuw i8, ptr %39, i64 8
  store ptr @l_Array_mapMUnsafe_map___at_Lean_Elab_PartialFixpoint_derivePartialCorrectness___spec__2___lambda__1___boxed, ptr %43, align 8, !tbaa !9
  %44 = getelementptr inbounds nuw i8, ptr %39, i64 16
  store i16 7, ptr %44, align 8, !tbaa !15
  %45 = getelementptr inbounds nuw i8, ptr %39, i64 18
  store i16 1, ptr %45, align 2, !tbaa !15
  %46 = getelementptr inbounds nuw i8, ptr %39, i64 24
  store ptr %0, ptr %46, align 8, !tbaa !9
  %47 = tail call ptr @l_Lean_Meta_withLocalDecl___at_Lean_Meta_Simp_Arith_withAbstractAtoms_go___spec__1___rarg(ptr noundef %11, i8 noundef zeroext 0, ptr noundef %1, ptr noundef nonnull %39, i8 noundef zeroext 0, ptr noundef %2, ptr noundef %3, ptr noundef %4, ptr noundef %5, ptr noundef %21) #6
  ret ptr %47
}